target datalayout = "e-m:e-p270:32:32-p271:32:32-p272:64:64-i64:64-i128:128-f80:128-n8:16:32:64-S128"
target triple = "x86_64-pc-linux-gnu"

%"class.mu::ParserCallback" = type <{ ptr, i32, i32, i32, i32, i32, i8, [3 x i8] }>
%"struct.mu::CbWithUserData" = type { ptr, ptr }

; Function Attrs: mustprogress nounwind uwtable
define noundef ptr @_ZNK2mu14ParserCallback7GetAddrEv(ptr noundef nonnull align 8 dereferenceable(32) %0) #5 align 2 {
  %2 = alloca ptr, align 8
  %3 = alloca ptr, align 8
  store ptr %0, ptr %3, align 8, !tbaa !32
  %4 = load ptr, ptr %3, align 8
  %5 = getelementptr inbounds nuw %"class.mu::ParserCallback", ptr %4, i32 0, i32 1
  %6 = load i32, ptr %5, align 8, !tbaa !43
  %7 = and i32 %6, 8192
  %8 = icmp ne i32 %7, 0
  br i1 %8, label %9, label %14

9:                                                ; preds = %1
  %10 = getelementptr inbounds nuw %"class.mu::ParserCallback", ptr %4, i32 0, i32 0
  %11 = load ptr, ptr %10, align 8, !tbaa !37
  %12 = getelementptr inbounds nuw %"struct.mu::CbWithUserData", ptr %11, i32 0, i32 0
  %13 = load ptr, ptr %12, align 8, !tbaa !54
  store ptr %13, ptr %2, align 8
  br label %17

14:                                               ; preds = %1
  %15 = getelementptr inbounds nuw %"class.mu::ParserCallback", ptr %4, i32 0, i32 0
  %16 = load ptr, ptr %15, align 8, !tbaa !37
  store ptr %16, ptr %2, align 8
  br label %17

17:                                               ; preds = %14, %9
  %18 = load ptr, ptr %2, align 8
  ret ptr %18
}