; Function Attrs: mustprogress nofree norecurse nosync nounwind willreturn memory(read, inaccessiblemem: none) uwtable
define noundef ptr @_ZNK2mu14ParserCallback7GetAddrEv(ptr noundef nonnull readonly align 8 captures(none) dereferenceable(32) %0) local_unnamed_addr #10 align 2 {
  %2 = getelementptr inbounds nuw i8, ptr %0, i64 8
  %3 = load i32, ptr %2, align 8, !tbaa !14
  %4 = and i32 %3, 8192
  %.not = icmp eq i32 %4, 0
  %5 = load ptr, ptr %0, align 8
  %.0.in = select i1 %.not, ptr %0, ptr %5
  %.0 = load ptr, ptr %.0.in, align 8, !tbaa !24
  ret ptr %.0
}